; ModuleID = 'source-C-CXX/5/544.cpp'
source_filename = "source-C-CXX/5/544.cpp"
target datalayout = "e-m:e-p270:32:32-p271:32:32-p272:64:64-i64:64-f80:128-n8:16:32:64-S128"
target triple = "x86_64-pc-linux-gnu"

%"class.std::ios_base::Init" = type { i8 }
%"class.std::basic_istream" = type { i32 (...)**, i64, %"class.std::basic_ios" }
%"class.std::basic_ios" = type { %"class.std::ios_base", %"class.std::basic_ostream"*, i8, i8, %"class.std::basic_streambuf"*, %"class.std::ctype"*, %"class.std::num_put"*, %"class.std::num_get"* }
%"class.std::ios_base" = type { i32 (...)**, i64, i64, i32, i32, i32, %"struct.std::ios_base::_Callback_list"*, %"struct.std::ios_base::_Words", [8 x %"struct.std::ios_base::_Words"], i32, %"struct.std::ios_base::_Words"*, %"class.std::locale" }
%"struct.std::ios_base::_Callback_list" = type { %"struct.std::ios_base::_Callback_list"*, void (i32, %"class.std::ios_base"*, i32)*, i32, i32 }
%"struct.std::ios_base::_Words" = type { i8*, i64 }
%"class.std::locale" = type { %"class.std::locale::_Impl"* }
%"class.std::locale::_Impl" = type { i32, %"class.std::locale::facet"**, i64, %"class.std::locale::facet"**, i8** }
%"class.std::locale::facet" = type <{ i32 (...)**, i32, [4 x i8] }>
%"class.std::basic_ostream" = type { i32 (...)**, %"class.std::basic_ios" }
%"class.std::basic_streambuf" = type { i32 (...)**, i8*, i8*, i8*, i8*, i8*, i8*, %"class.std::locale" }
%"class.std::ctype" = type <{ %"class.std::locale::facet.base", [4 x i8], %struct.__locale_struct*, i8, [7 x i8], i32*, i32*, i16*, i8, [256 x i8], [256 x i8], i8, [6 x i8] }>
%"class.std::locale::facet.base" = type <{ i32 (...)**, i32 }>
%struct.__locale_struct = type { [13 x %struct.__locale_data*], i16*, i32*, i32*, [13 x i8*] }
%struct.__locale_data = type opaque
%"class.std::num_put" = type { %"class.std::locale::facet.base", [4 x i8] }
%"class.std::num_get" = type { %"class.std::locale::facet.base", [4 x i8] }

@_ZStL8__ioinit = internal global %"class.std::ios_base::Init" zeroinitializer, align 1
@__dso_handle = external hidden global i8
@_ZSt3cin = external global %"class.std::basic_istream", align 8
@_ZSt4cout = external global %"class.std::basic_ostream", align 8
@llvm.global_ctors = appending global [1 x { i32, void ()*, i8* }] [{ i32, void ()*, i8* } { i32 65535, void ()* @_GLOBAL__sub_I_544.cpp, i8* null }]

declare void @_ZNSt8ios_base4InitC1Ev(%"class.std::ios_base::Init"* nonnull align 1 dereferenceable(1)) unnamed_addr #0

; Function Attrs: nounwind
declare void @_ZNSt8ios_base4InitD1Ev(%"class.std::ios_base::Init"* nonnull align 1 dereferenceable(1)) unnamed_addr #1

; Function Attrs: nofree nounwind
declare i32 @__cxa_atexit(void (i8*)*, i8*, i8*) local_unnamed_addr #2

; Function Attrs: mustprogress norecurse sspstrong uwtable
define dso_local i32 @main() local_unnamed_addr #3 {
  %1 = alloca i32, align 4
  %2 = alloca i32, align 4
  %3 = alloca i32, align 4
  %4 = alloca i32, align 4
  %5 = alloca [1000 x i32], align 16
  %6 = bitcast i32* %1 to i8*
  call void @llvm.lifetime.start.p0i8(i64 4, i8* nonnull %6) #8
  %7 = bitcast i32* %2 to i8*
  call void @llvm.lifetime.start.p0i8(i64 4, i8* nonnull %7) #8
  %8 = bitcast i32* %3 to i8*
  call void @llvm.lifetime.start.p0i8(i64 4, i8* nonnull %8) #8
  %9 = bitcast i32* %4 to i8*
  call void @llvm.lifetime.start.p0i8(i64 4, i8* nonnull %9) #8
  %10 = bitcast [1000 x i32]* %5 to i8*
  call void @llvm.lifetime.start.p0i8(i64 4000, i8* nonnull %10) #8
  call void @llvm.memset.p0i8.i64(i8* noundef nonnull align 16 dereferenceable(4000) %10, i8 0, i64 4000, i1 false)
  %11 = call nonnull align 8 dereferenceable(16) %"class.std::basic_istream"* @_ZNSirsERi(%"class.std::basic_istream"* nonnull align 8 dereferenceable(16) @_ZSt3cin, i32* nonnull align 4 dereferenceable(4) %1)
  %12 = load i32, i32* %1, align 4, !tbaa !5
  %13 = icmp slt i32 %12, 1
  br i1 %13, label %113, label %16

14:                                               ; preds = %66
  %15 = icmp slt i32 %68, 1
  br i1 %15, label %113, label %71

16:                                               ; preds = %0, %66
  %17 = phi i64 [ %67, %66 ], [ 1, %0 ]
  %18 = call nonnull align 8 dereferenceable(16) %"class.std::basic_istream"* @_ZNSirsERi(%"class.std::basic_istream"* nonnull align 8 dereferenceable(16) @_ZSt3cin, i32* nonnull align 4 dereferenceable(4) %2)
  %19 = call nonnull align 8 dereferenceable(16) %"class.std::basic_istream"* @_ZNSirsERi(%"class.std::basic_istream"* nonnull align 8 dereferenceable(16) %18, i32* nonnull align 4 dereferenceable(4) %3)
  %20 = getelementptr inbounds [1000 x i32], [1000 x i32]* %5, i64 0, i64 %17
  %21 = load i32, i32* %2, align 4, !tbaa !5
  %22 = icmp slt i32 %21, 1
  %23 = load i32, i32* %3, align 4
  %24 = icmp slt i32 %23, 1
  %25 = select i1 %22, i1 true, i1 %24
  br i1 %25, label %66, label %26

26:                                               ; preds = %16, %61
  %27 = phi i32 [ %62, %61 ], [ %21, %16 ]
  %28 = phi i32 [ %63, %61 ], [ %23, %16 ]
  %29 = phi i32 [ %64, %61 ], [ 1, %16 ]
  %30 = icmp slt i32 %28, 1
  br i1 %30, label %61, label %31

31:                                               ; preds = %26
  %32 = icmp eq i32 %29, 1
  br i1 %32, label %33, label %42

33:                                               ; preds = %31, %33
  %34 = phi i32 [ %39, %33 ], [ 1, %31 ]
  %35 = call nonnull align 8 dereferenceable(16) %"class.std::basic_istream"* @_ZNSirsERi(%"class.std::basic_istream"* nonnull align 8 dereferenceable(16) @_ZSt3cin, i32* nonnull align 4 dereferenceable(4) %4)
  %36 = load i32, i32* %4, align 4, !tbaa !5
  %37 = load i32, i32* %20, align 4, !tbaa !5
  %38 = add nsw i32 %37, %36
  store i32 %38, i32* %20, align 4, !tbaa !5
  %39 = add nuw nsw i32 %34, 1
  %40 = load i32, i32* %3, align 4, !tbaa !5
  %41 = icmp slt i32 %34, %40
  br i1 %41, label %33, label %59, !llvm.loop !9

42:                                               ; preds = %31, %56
  %43 = phi i32 [ %57, %56 ], [ 1, %31 ]
  %44 = call nonnull align 8 dereferenceable(16) %"class.std::basic_istream"* @_ZNSirsERi(%"class.std::basic_istream"* nonnull align 8 dereferenceable(16) @_ZSt3cin, i32* nonnull align 4 dereferenceable(4) %4)
  %45 = load i32, i32* %2, align 4, !tbaa !5
  %46 = icmp eq i32 %29, %45
  %47 = icmp eq i32 %43, 1
  %48 = select i1 %46, i1 true, i1 %47
  %49 = load i32, i32* %3, align 4
  %50 = icmp eq i32 %43, %49
  %51 = select i1 %48, i1 true, i1 %50
  br i1 %51, label %52, label %56

52:                                               ; preds = %42
  %53 = load i32, i32* %4, align 4, !tbaa !5
  %54 = load i32, i32* %20, align 4, !tbaa !5
  %55 = add nsw i32 %54, %53
  store i32 %55, i32* %20, align 4, !tbaa !5
  br label %56

56:                                               ; preds = %42, %52
  %57 = add nuw nsw i32 %43, 1
  %58 = icmp slt i32 %43, %49
  br i1 %58, label %42, label %61, !llvm.loop !9

59:                                               ; preds = %33
  %60 = load i32, i32* %2, align 4, !tbaa !5
  br label %61

61:                                               ; preds = %56, %59, %26
  %62 = phi i32 [ %60, %59 ], [ %27, %26 ], [ %45, %56 ]
  %63 = phi i32 [ %40, %59 ], [ %28, %26 ], [ %49, %56 ]
  %64 = add nuw nsw i32 %29, 1
  %65 = icmp slt i32 %29, %62
  br i1 %65, label %26, label %66, !llvm.loop !11

66:                                               ; preds = %61, %16
  %67 = add nuw nsw i64 %17, 1
  %68 = load i32, i32* %1, align 4, !tbaa !5
  %69 = sext i32 %68 to i64
  %70 = icmp slt i64 %17, %69
  br i1 %70, label %16, label %14, !llvm.loop !13

71:                                               ; preds = %14, %108
  %72 = phi i64 [ %110, %108 ], [ 1, %14 ]
  %73 = getelementptr inbounds [1000 x i32], [1000 x i32]* %5, i64 0, i64 %72
  %74 = load i32, i32* %73, align 4, !tbaa !5
  %75 = call nonnull align 8 dereferenceable(8) %"class.std::basic_ostream"* @_ZNSolsEi(%"class.std::basic_ostream"* nonnull align 8 dereferenceable(8) @_ZSt4cout, i32 %74)
  %76 = load i32, i32* %1, align 4, !tbaa !5
  %77 = zext i32 %76 to i64
  %78 = icmp eq i64 %72, %77
  br i1 %78, label %108, label %79

79:                                               ; preds = %71
  %80 = load i8*, i8** bitcast (%"class.std::basic_ostream"* @_ZSt4cout to i8**), align 8, !tbaa !14
  %81 = getelementptr i8, i8* %80, i64 -24
  %82 = bitcast i8* %81 to i64*
  %83 = load i64, i64* %82, align 8
  %84 = add nsw i64 %83, 240
  %85 = getelementptr inbounds i8, i8* bitcast (%"class.std::basic_ostream"* @_ZSt4cout to i8*), i64 %84
  %86 = bitcast i8* %85 to %"class.std::ctype"**
  %87 = load %"class.std::ctype"*, %"class.std::ctype"** %86, align 8, !tbaa !16
  %88 = icmp eq %"class.std::ctype"* %87, null
  br i1 %88, label %89, label %90

89:                                               ; preds = %79
  call void @_ZSt16__throw_bad_castv() #9
  unreachable

90:                                               ; preds = %79
  %91 = getelementptr inbounds %"class.std::ctype", %"class.std::ctype"* %87, i64 0, i32 8
  %92 = load i8, i8* %91, align 8, !tbaa !20
  %93 = icmp eq i8 %92, 0
  br i1 %93, label %97, label %94

94:                                               ; preds = %90
  %95 = getelementptr inbounds %"class.std::ctype", %"class.std::ctype"* %87, i64 0, i32 9, i64 10
  %96 = load i8, i8* %95, align 1, !tbaa !22
  br label %103

97:                                               ; preds = %90
  call void @_ZNKSt5ctypeIcE13_M_widen_initEv(%"class.std::ctype"* nonnull align 8 dereferenceable(570) %87)
  %98 = bitcast %"class.std::ctype"* %87 to i8 (%"class.std::ctype"*, i8)***
  %99 = load i8 (%"class.std::ctype"*, i8)**, i8 (%"class.std::ctype"*, i8)*** %98, align 8, !tbaa !14
  %100 = getelementptr inbounds i8 (%"class.std::ctype"*, i8)*, i8 (%"class.std::ctype"*, i8)** %99, i64 6
  %101 = load i8 (%"class.std::ctype"*, i8)*, i8 (%"class.std::ctype"*, i8)** %100, align 8
  %102 = call signext i8 %101(%"class.std::ctype"* nonnull align 8 dereferenceable(570) %87, i8 signext 10)
  br label %103

103:                                              ; preds = %94, %97
  %104 = phi i8 [ %96, %94 ], [ %102, %97 ]
  %105 = call nonnull align 8 dereferenceable(8) %"class.std::basic_ostream"* @_ZNSo3putEc(%"class.std::basic_ostream"* nonnull align 8 dereferenceable(8) @_ZSt4cout, i8 signext %104)
  %106 = call nonnull align 8 dereferenceable(8) %"class.std::basic_ostream"* @_ZNSo5flushEv(%"class.std::basic_ostream"* nonnull align 8 dereferenceable(8) %105)
  %107 = load i32, i32* %1, align 4, !tbaa !5
  br label %108

108:                                              ; preds = %71, %103
  %109 = phi i32 [ %76, %71 ], [ %107, %103 ]
  %110 = add nuw nsw i64 %72, 1
  %111 = sext i32 %109 to i64
  %112 = icmp slt i64 %72, %111
  br i1 %112, label %71, label %113, !llvm.loop !23

113:                                              ; preds = %108, %0, %14
  call void @llvm.lifetime.end.p0i8(i64 4000, i8* nonnull %10) #8
  call void @llvm.lifetime.end.p0i8(i64 4, i8* nonnull %9) #8
  call void @llvm.lifetime.end.p0i8(i64 4, i8* nonnull %8) #8
  call void @llvm.lifetime.end.p0i8(i64 4, i8* nonnull %7) #8
  call void @llvm.lifetime.end.p0i8(i64 4, i8* nonnull %6) #8
  ret i32 0
}

; Function Attrs: argmemonly mustprogress nofree nosync nounwind willreturn
declare void @llvm.lifetime.start.p0i8(i64 immarg, i8* nocapture) #4

; Function Attrs: argmemonly mustprogress nofree nounwind willreturn writeonly
declare void @llvm.memset.p0i8.i64(i8* nocapture writeonly, i8, i64, i1 immarg) #5

declare nonnull align 8 dereferenceable(16) %"class.std::basic_istream"* @_ZNSirsERi(%"class.std::basic_istream"* nonnull align 8 dereferenceable(16), i32* nonnull align 4 dereferenceable(4)) local_unnamed_addr #0

declare nonnull align 8 dereferenceable(8) %"class.std::basic_ostream"* @_ZNSolsEi(%"class.std::basic_ostream"* nonnull align 8 dereferenceable(8), i32) local_unnamed_addr #0

; Function Attrs: argmemonly mustprogress nofree nosync nounwind willreturn
declare void @llvm.lifetime.end.p0i8(i64 immarg, i8* nocapture) #4

declare nonnull align 8 dereferenceable(8) %"class.std::basic_ostream"* @_ZNSo3putEc(%"class.std::basic_ostream"* nonnull align 8 dereferenceable(8), i8 signext) local_unnamed_addr #0

declare nonnull align 8 dereferenceable(8) %"class.std::basic_ostream"* @_ZNSo5flushEv(%"class.std::basic_ostream"* nonnull align 8 dereferenceable(8)) local_unnamed_addr #0

; Function Attrs: noreturn
declare void @_ZSt16__throw_bad_castv() local_unnamed_addr #6

declare void @_ZNKSt5ctypeIcE13_M_widen_initEv(%"class.std::ctype"* nonnull align 8 dereferenceable(570)) local_unnamed_addr #0

; Function Attrs: sspstrong uwtable
define internal void @_GLOBAL__sub_I_544.cpp() #7 section ".text.startup" {
  tail call void @_ZNSt8ios_base4InitC1Ev(%"class.std::ios_base::Init"* nonnull align 1 dereferenceable(1) @_ZStL8__ioinit)
  %1 = tail call i32 @__cxa_atexit(void (i8*)* bitcast (void (%"class.std::ios_base::Init"*)* @_ZNSt8ios_base4InitD1Ev to void (i8*)*), i8* getelementptr inbounds (%"class.std::ios_base::Init", %"class.std::ios_base::Init"* @_ZStL8__ioinit, i64 0, i32 0), i8* nonnull @__dso_handle) #8
  ret void
}


!llvm.module.flags = !{!0, !1, !2, !3}
!llvm.ident = !{!4}

!0 = !{i32 1, !"wchar_size", i32 4}
!1 = !{i32 7, !"PIC Level", i32 2}
!2 = !{i32 7, !"PIE Level", i32 2}
!3 = !{i32 7, !"uwtable", i32 1}
!4 = !{!"clang version 13.0.0"}
!5 = !{!6, !6, i64 0}
!6 = !{!"int", !7, i64 0}
!7 = !{!"omnipotent char", !8, i64 0}
!8 = !{!"Simple C++ TBAA"}
!9 = distinct !{!9, !10}
!10 = !{!"llvm.loop.mustprogress"}
!11 = distinct !{!11, !10, !12}
!12 = !{!"llvm.loop.unswitch.partial.disable"}
!13 = distinct !{!13, !10}
!14 = !{!15, !15, i64 0}
!15 = !{!"vtable pointer", !8, i64 0}
!16 = !{!17, !18, i64 240}
!17 = !{!"_ZTSSt9basic_iosIcSt11char_traitsIcEE", !18, i64 216, !7, i64 224, !19, i64 225, !18, i64 232, !18, i64 240, !18, i64 248, !18, i64 256}
!18 = !{!"any pointer", !7, i64 0}
!19 = !{!"bool", !7, i64 0}
!20 = !{!21, !7, i64 56}
!21 = !{!"_ZTSSt5ctypeIcE", !18, i64 16, !19, i64 24, !18, i64 32, !18, i64 40, !18, i64 48, !7, i64 56, !7, i64 57, !7, i64 313, !7, i64 569}
!22 = !{!7, !7, i64 0}
!23 = distinct !{!23, !10}
